target datalayout = "e-m:e-p270:32:32-p271:32:32-p272:64:64-i64:64-i128:128-f80:128-n8:16:32:64-S128"
target triple = "x86_64-unknown-linux-gnu"

%"struct.std::_Rb_tree_key_compare" = type { %"struct.std::less" }
%"struct.std::less" = type { i8 }
%"struct.std::_Rb_tree_header" = type { %"struct.std::_Rb_tree_node_base", i64 }
%"struct.std::_Rb_tree_node_base" = type { i32, ptr, ptr, ptr }
%"class.std::__cxx11::basic_string" = type { %"struct.std::__cxx11::basic_string<char>::_Alloc_hider", i64, %union.anon }
%"struct.std::__cxx11::basic_string<char>::_Alloc_hider" = type { ptr }
%union.anon = type { i64, [8 x i8] }
%"class.OpenColorIO_v2_4dev::FormatRegistry" = type { %"class.std::map", %"class.std::map.7", %"class.std::vector", %"class.std::vector.15", %"class.std::vector.15", %"class.std::vector.15", %"class.std::vector.15", %"class.std::vector.15", %"class.std::vector.15" }
%"class.std::map" = type { %"class.std::_Rb_tree" }
%"class.std::_Rb_tree" = type { %"struct.std::_Rb_tree<std::__cxx11::basic_string<char>, std::pair<const std::__cxx11::basic_string<char>, OpenColorIO_v2_4dev::FileFormat *>, std::_Select1st<std::pair<const std::__cxx11::basic_string<char>, OpenColorIO_v2_4dev::FileFormat *>>, std::less<std::__cxx11::basic_string<char>>>::_Rb_tree_impl" }
%"struct.std::_Rb_tree<std::__cxx11::basic_string<char>, std::pair<const std::__cxx11::basic_string<char>, OpenColorIO_v2_4dev::FileFormat *>, std::_Select1st<std::pair<const std::__cxx11::basic_string<char>, OpenColorIO_v2_4dev::FileFormat *>>, std::less<std::__cxx11::basic_string<char>>>::_Rb_tree_impl" = type { %"struct.std::_Rb_tree_key_compare", %"struct.std::_Rb_tree_header" }
%"class.std::map.7" = type { %"class.std::_Rb_tree.8" }
%"class.std::_Rb_tree.8" = type { %"struct.std::_Rb_tree<std::__cxx11::basic_string<char>, std::pair<const std::__cxx11::basic_string<char>, std::vector<OpenColorIO_v2_4dev::FileFormat *>>, std::_Select1st<std::pair<const std::__cxx11::basic_string<char>, std::vector<OpenColorIO_v2_4dev::FileFormat *>>>, std::less<std::__cxx11::basic_string<char>>>::_Rb_tree_impl" }
%"struct.std::_Rb_tree<std::__cxx11::basic_string<char>, std::pair<const std::__cxx11::basic_string<char>, std::vector<OpenColorIO_v2_4dev::FileFormat *>>, std::_Select1st<std::pair<const std::__cxx11::basic_string<char>, std::vector<OpenColorIO_v2_4dev::FileFormat *>>>, std::less<std::__cxx11::basic_string<char>>>::_Rb_tree_impl" = type { %"struct.std::_Rb_tree_key_compare", %"struct.std::_Rb_tree_header" }
%"class.std::vector" = type { %"struct.std::_Vector_base" }
%"struct.std::_Vector_base" = type { %"struct.std::_Vector_base<OpenColorIO_v2_4dev::FileFormat *, std::allocator<OpenColorIO_v2_4dev::FileFormat *>>::_Vector_impl" }
%"struct.std::_Vector_base<OpenColorIO_v2_4dev::FileFormat *, std::allocator<OpenColorIO_v2_4dev::FileFormat *>>::_Vector_impl" = type { %"struct.std::_Vector_base<OpenColorIO_v2_4dev::FileFormat *, std::allocator<OpenColorIO_v2_4dev::FileFormat *>>::_Vector_impl_data" }
%"struct.std::_Vector_base<OpenColorIO_v2_4dev::FileFormat *, std::allocator<OpenColorIO_v2_4dev::FileFormat *>>::_Vector_impl_data" = type { ptr, ptr, ptr }
%"class.std::vector.15" = type { %"struct.std::_Vector_base.16" }
%"struct.std::_Vector_base.16" = type { %"struct.std::_Vector_base<std::__cxx11::basic_string<char>, std::allocator<std::__cxx11::basic_string<char>>>::_Vector_impl" }
%"struct.std::_Vector_base<std::__cxx11::basic_string<char>, std::allocator<std::__cxx11::basic_string<char>>>::_Vector_impl" = type { %"struct.std::_Vector_base<std::__cxx11::basic_string<char>, std::allocator<std::__cxx11::basic_string<char>>>::_Vector_impl_data" }
%"struct.std::_Vector_base<std::__cxx11::basic_string<char>, std::allocator<std::__cxx11::basic_string<char>>>::_Vector_impl_data" = type { ptr, ptr, ptr }

@.str.15 = private unnamed_addr constant [1 x i8] zeroinitializer, align 1

; Function Attrs: mustprogress nounwind uwtable
define linkonce_odr hidden noundef nonnull align 8 dereferenceable(32) ptr @_ZNKSt6vectorINSt7__cxx1112basic_stringIcSt11char_traitsIcESaIcEEESaIS5_EEixEm(ptr noundef nonnull align 8 dereferenceable(24) %this, i64 noundef %__n) #7 comdat align 2 {
entry:
  %this.addr = alloca ptr, align 8
  %__n.addr = alloca i64, align 8
  store ptr %this, ptr %this.addr, align 8
  store i64 %__n, ptr %__n.addr, align 8
  %this1 = load ptr, ptr %this.addr, align 8
  %_M_impl = getelementptr inbounds %"struct.std::_Vector_base.16", ptr %this1, i32 0, i32 0
  %_M_start = getelementptr inbounds %"struct.std::_Vector_base<std::__cxx11::basic_string<char>, std::allocator<std::__cxx11::basic_string<char>>>::_Vector_impl_data", ptr %_M_impl, i32 0, i32 0
  %0 = load ptr, ptr %_M_start, align 8
  %1 = load i64, ptr %__n.addr, align 8
  %add.ptr = getelementptr inbounds %"class.std::__cxx11::basic_string", ptr %0, i64 %1
  ret ptr %add.ptr
}

; Function Attrs: mustprogress nounwind uwtable
define linkonce_odr hidden noundef i64 @_ZNKSt6vectorINSt7__cxx1112basic_stringIcSt11char_traitsIcESaIcEEESaIS5_EE4sizeEv(ptr noundef nonnull align 8 dereferenceable(24) %this) #7 comdat align 2 {
entry:
  %this.addr = alloca ptr, align 8
  store ptr %this, ptr %this.addr, align 8
  %this1 = load ptr, ptr %this.addr, align 8
  %_M_impl = getelementptr inbounds %"struct.std::_Vector_base.16", ptr %this1, i32 0, i32 0
  %_M_finish = getelementptr inbounds %"struct.std::_Vector_base<std::__cxx11::basic_string<char>, std::allocator<std::__cxx11::basic_string<char>>>::_Vector_impl_data", ptr %_M_impl, i32 0, i32 1
  %0 = load ptr, ptr %_M_finish, align 8
  %_M_impl2 = getelementptr inbounds %"struct.std::_Vector_base.16", ptr %this1, i32 0, i32 0
  %_M_start = getelementptr inbounds %"struct.std::_Vector_base<std::__cxx11::basic_string<char>, std::allocator<std::__cxx11::basic_string<char>>>::_Vector_impl_data", ptr %_M_impl2, i32 0, i32 0
  %1 = load ptr, ptr %_M_start, align 8
  %sub.ptr.lhs.cast = ptrtoint ptr %0 to i64
  %sub.ptr.rhs.cast = ptrtoint ptr %1 to i64
  %sub.ptr.sub = sub i64 %sub.ptr.lhs.cast, %sub.ptr.rhs.cast
  %sub.ptr.div = sdiv exact i64 %sub.ptr.sub, 32
  ret i64 %sub.ptr.div
}

; Function Attrs: mustprogress nounwind uwtable
define hidden noundef ptr @_ZNK19OpenColorIO_v2_4dev14FormatRegistry20getFormatNameByIndexEii(ptr noundef nonnull align 8 dereferenceable(264) %this, i32 noundef %capability, i32 noundef %index) #7 align 2 {
entry:
  %retval = alloca ptr, align 8
  %this.addr = alloca ptr, align 8
  %capability.addr = alloca i32, align 4
  %index.addr = alloca i32, align 4
  store ptr %this, ptr %this.addr, align 8
  store i32 %capability, ptr %capability.addr, align 4
  store i32 %index, ptr %index.addr, align 4
  %this1 = load ptr, ptr %this.addr, align 8
  %0 = load i32, ptr %capability.addr, align 4
  %cmp = icmp eq i32 %0, 1
  br i1 %cmp, label %if.then, label %if.else

if.then:                                          ; preds = %entry
  %1 = load i32, ptr %index.addr, align 4
  %cmp2 = icmp slt i32 %1, 0
  br i1 %cmp2, label %if.then4, label %lor.lhs.false

lor.lhs.false:                                    ; preds = %if.then
  %2 = load i32, ptr %index.addr, align 4
  %m_readFormatNames = getelementptr inbounds %"class.OpenColorIO_v2_4dev::FormatRegistry", ptr %this1, i32 0, i32 3
  %call = call noundef i64 @_ZNKSt6vectorINSt7__cxx1112basic_stringIcSt11char_traitsIcESaIcEEESaIS5_EE4sizeEv(ptr noundef nonnull align 8 dereferenceable(24) %m_readFormatNames) #3
  %conv = trunc i64 %call to i32
  %cmp3 = icmp sge i32 %2, %conv
  br i1 %cmp3, label %if.then4, label %if.end

if.then4:                                         ; preds = %lor.lhs.false, %if.then
  store ptr @.str.15, ptr %retval, align 8
  br label %return

if.end:                                           ; preds = %lor.lhs.false
  %m_readFormatNames5 = getelementptr inbounds %"class.OpenColorIO_v2_4dev::FormatRegistry", ptr %this1, i32 0, i32 3
  %3 = load i32, ptr %index.addr, align 4
  %conv6 = sext i32 %3 to i64
  %call7 = call noundef nonnull align 8 dereferenceable(32) ptr @_ZNKSt6vectorINSt7__cxx1112basic_stringIcSt11char_traitsIcESaIcEEESaIS5_EEixEm(ptr noundef nonnull align 8 dereferenceable(24) %m_readFormatNames5, i64 noundef %conv6) #3
  %call8 = call noundef ptr @_ZNKSt7__cxx1112basic_stringIcSt11char_traitsIcESaIcEE5c_strEv(ptr noundef nonnull align 8 dereferenceable(32) %call7) #3
  store ptr %call8, ptr %retval, align 8
  br label %return

if.else:                                          ; preds = %entry
  %4 = load i32, ptr %capability.addr, align 4
  %cmp9 = icmp eq i32 %4, 2
  br i1 %cmp9, label %if.then10, label %if.else22

if.then10:                                        ; preds = %if.else
  %5 = load i32, ptr %index.addr, align 4
  %cmp11 = icmp slt i32 %5, 0
  br i1 %cmp11, label %if.then16, label %lor.lhs.false12

lor.lhs.false12:                                  ; preds = %if.then10
  %6 = load i32, ptr %index.addr, align 4
  %m_bakeFormatNames = getelementptr inbounds %"class.OpenColorIO_v2_4dev::FormatRegistry", ptr %this1, i32 0, i32 5
  %call13 = call noundef i64 @_ZNKSt6vectorINSt7__cxx1112basic_stringIcSt11char_traitsIcESaIcEEESaIS5_EE4sizeEv(ptr noundef nonnull align 8 dereferenceable(24) %m_bakeFormatNames) #3
  %conv14 = trunc i64 %call13 to i32
  %cmp15 = icmp sge i32 %6, %conv14
  br i1 %cmp15, label %if.then16, label %if.end17

if.then16:                                        ; preds = %lor.lhs.false12, %if.then10
  store ptr @.str.15, ptr %retval, align 8
  br label %return

if.end17:                                         ; preds = %lor.lhs.false12
  %m_bakeFormatNames18 = getelementptr inbounds %"class.OpenColorIO_v2_4dev::FormatRegistry", ptr %this1, i32 0, i32 5
  %7 = load i32, ptr %index.addr, align 4
  %conv19 = sext i32 %7 to i64
  %call20 = call noundef nonnull align 8 dereferenceable(32) ptr @_ZNKSt6vectorINSt7__cxx1112basic_stringIcSt11char_traitsIcESaIcEEESaIS5_EEixEm(ptr noundef nonnull align 8 dereferenceable(24) %m_bakeFormatNames18, i64 noundef %conv19) #3
  %call21 = call noundef ptr @_ZNKSt7__cxx1112basic_stringIcSt11char_traitsIcESaIcEE5c_strEv(ptr noundef nonnull align 8 dereferenceable(32) %call20) #3
  store ptr %call21, ptr %retval, align 8
  br label %return

if.else22:                                        ; preds = %if.else
  %8 = load i32, ptr %capability.addr, align 4
  %cmp23 = icmp eq i32 %8, 4
  br i1 %cmp23, label %if.then24, label %if.end36

if.then24:                                        ; preds = %if.else22
  %9 = load i32, ptr %index.addr, align 4
  %cmp25 = icmp slt i32 %9, 0
  br i1 %cmp25, label %if.then30, label %lor.lhs.false26

lor.lhs.false26:                                  ; preds = %if.then24
  %10 = load i32, ptr %index.addr, align 4
  %m_writeFormatNames = getelementptr inbounds %"class.OpenColorIO_v2_4dev::FormatRegistry", ptr %this1, i32 0, i32 7
  %call27 = call noundef i64 @_ZNKSt6vectorINSt7__cxx1112basic_stringIcSt11char_traitsIcESaIcEEESaIS5_EE4sizeEv(ptr noundef nonnull align 8 dereferenceable(24) %m_writeFormatNames) #3
  %conv28 = trunc i64 %call27 to i32
  %cmp29 = icmp sge i32 %10, %conv28
  br i1 %cmp29, label %if.then30, label %if.end31

if.then30:                                        ; preds = %lor.lhs.false26, %if.then24
  store ptr @.str.15, ptr %retval, align 8
  br label %return

if.end31:                                         ; preds = %lor.lhs.false26
  %m_writeFormatNames32 = getelementptr inbounds %"class.OpenColorIO_v2_4dev::FormatRegistry", ptr %this1, i32 0, i32 7
  %11 = load i32, ptr %index.addr, align 4
  %conv33 = sext i32 %11 to i64
  %call34 = call noundef nonnull align 8 dereferenceable(32) ptr @_ZNKSt6vectorINSt7__cxx1112basic_stringIcSt11char_traitsIcESaIcEEESaIS5_EEixEm(ptr noundef nonnull align 8 dereferenceable(24) %m_writeFormatNames32, i64 noundef %conv33) #3
  %call35 = call noundef ptr @_ZNKSt7__cxx1112basic_stringIcSt11char_traitsIcESaIcEE5c_strEv(ptr noundef nonnull align 8 dereferenceable(32) %call34) #3
  store ptr %call35, ptr %retval, align 8
  br label %return

if.end36:                                         ; preds = %if.else22
  br label %if.end37

if.end37:                                         ; preds = %if.end36
  br label %if.end38

if.end38:                                         ; preds = %if.end37
  store ptr @.str.15, ptr %retval, align 8
  br label %return

return:                                           ; preds = %if.end38, %if.end31, %if.then30, %if.end17, %if.then16, %if.end, %if.then4
  %12 = load ptr, ptr %retval, align 8
  ret ptr %12
}