; Function Attrs: mustprogress nounwind uwtable
define hidden noundef ptr @_ZNK19OpenColorIO_v2_4dev14FormatRegistry20getFormatNameByIndexEii(ptr nocapture noundef nonnull readonly align 8 dereferenceable(264) %this, i32 noundef %capability, i32 noundef %index) local_unnamed_addr #6 align 2 {
entry:
  switch i32 %capability, label %return [
    i32 1, label %if.then
    i32 2, label %if.then10
    i32 4, label %if.then24
  ]

if.then:                                          ; preds = %entry
  %cmp2 = icmp slt i32 %index, 0
  br i1 %cmp2, label %return, label %lor.lhs.false

lor.lhs.false:                                    ; preds = %if.then
  %m_readFormatNames = getelementptr inbounds i8, ptr %this, i64 120
  %_M_finish.i = getelementptr inbounds i8, ptr %this, i64 128
  %0 = load ptr, ptr %_M_finish.i, align 8
  %1 = load ptr, ptr %m_readFormatNames, align 8
  %sub.ptr.lhs.cast.i = ptrtoint ptr %0 to i64
  %sub.ptr.rhs.cast.i = ptrtoint ptr %1 to i64
  %sub.ptr.sub.i = sub i64 %sub.ptr.lhs.cast.i, %sub.ptr.rhs.cast.i
  %sub.ptr.div.i = lshr exact i64 %sub.ptr.sub.i, 5
  %conv = trunc i64 %sub.ptr.div.i to i32
  %cmp3.not = icmp sgt i32 %conv, %index
  br i1 %cmp3.not, label %return.sink.split, label %return

if.then10:                                        ; preds = %entry
  %cmp11 = icmp slt i32 %index, 0
  br i1 %cmp11, label %return, label %lor.lhs.false12

lor.lhs.false12:                                  ; preds = %if.then10
  %m_bakeFormatNames = getelementptr inbounds i8, ptr %this, i64 168
  %_M_finish.i11 = getelementptr inbounds i8, ptr %this, i64 176
  %2 = load ptr, ptr %_M_finish.i11, align 8
  %3 = load ptr, ptr %m_bakeFormatNames, align 8
  %sub.ptr.lhs.cast.i12 = ptrtoint ptr %2 to i64
  %sub.ptr.rhs.cast.i13 = ptrtoint ptr %3 to i64
  %sub.ptr.sub.i14 = sub i64 %sub.ptr.lhs.cast.i12, %sub.ptr.rhs.cast.i13
  %sub.ptr.div.i15 = lshr exact i64 %sub.ptr.sub.i14, 5
  %conv14 = trunc i64 %sub.ptr.div.i15 to i32
  %cmp15.not = icmp sgt i32 %conv14, %index
  br i1 %cmp15.not, label %return.sink.split, label %return

if.then24:                                        ; preds = %entry
  %cmp25 = icmp slt i32 %index, 0
  br i1 %cmp25, label %return, label %lor.lhs.false26

lor.lhs.false26:                                  ; preds = %if.then24
  %m_writeFormatNames = getelementptr inbounds i8, ptr %this, i64 216
  %_M_finish.i17 = getelementptr inbounds i8, ptr %this, i64 224
  %4 = load ptr, ptr %_M_finish.i17, align 8
  %5 = load ptr, ptr %m_writeFormatNames, align 8
  %sub.ptr.lhs.cast.i18 = ptrtoint ptr %4 to i64
  %sub.ptr.rhs.cast.i19 = ptrtoint ptr %5 to i64
  %sub.ptr.sub.i20 = sub i64 %sub.ptr.lhs.cast.i18, %sub.ptr.rhs.cast.i19
  %sub.ptr.div.i21 = lshr exact i64 %sub.ptr.sub.i20, 5
  %conv28 = trunc i64 %sub.ptr.div.i21 to i32
  %cmp29.not = icmp sgt i32 %conv28, %index
  br i1 %cmp29.not, label %return.sink.split, label %return

return.sink.split:                                ; preds = %lor.lhs.false26, %lor.lhs.false12, %lor.lhs.false
  %.sink = phi ptr [ %1, %lor.lhs.false ], [ %3, %lor.lhs.false12 ], [ %5, %lor.lhs.false26 ]
  %conv33 = zext nneg i32 %index to i64
  %add.ptr.i22 = getelementptr inbounds %"class.std::__cxx11::basic_string", ptr %.sink, i64 %conv33
  %call35 = tail call noundef ptr @_ZNKSt7__cxx1112basic_stringIcSt11char_traitsIcESaIcEE5c_strEv(ptr noundef nonnull align 8 dereferenceable(32) %add.ptr.i22) #28
  br label %return

return:                                           ; preds = %return.sink.split, %entry, %if.then24, %lor.lhs.false26, %if.then10, %lor.lhs.false12, %if.then, %lor.lhs.false
  %retval.0 = phi ptr [ @.str.15, %lor.lhs.false ], [ @.str.15, %if.then ], [ @.str.15, %lor.lhs.false12 ], [ @.str.15, %if.then10 ], [ @.str.15, %lor.lhs.false26 ], [ @.str.15, %if.then24 ], [ @.str.15, %entry ], [ %call35, %return.sink.split ]
  ret ptr %retval.0
}